target datalayout = "e-m:e-p270:32:32-p271:32:32-p272:64:64-i64:64-i128:128-f80:128-n8:16:32:64-S128"
target triple = "x86_64-pc-linux-gnu"

%struct.index_state = type { ptr, i32, i32, i32, i32, ptr, ptr, ptr, %struct.cache_time, i8, i32, %struct.hashmap, %struct.hashmap, %struct.object_id, ptr, ptr, ptr, ptr, ptr, ptr, ptr }
%struct.cache_time = type { i32, i32 }
%struct.hashmap = type { ptr, ptr, ptr, i32, i32, i32, i32, i8 }
%struct.object_id = type { [32 x i8], i32 }
%struct.cache_entry = type { %struct.hashmap_entry, %struct.stat_data, i32, i32, i32, i32, i32, %struct.object_id, [0 x i8] }
%struct.hashmap_entry = type { ptr, i32 }
%struct.stat_data = type { %struct.cache_time, %struct.cache_time, i32, i32, i32, i32, i32 }

; Function Attrs: nounwind uwtable
define dso_local i32 @unmerged_index(ptr noundef %0) #0 {
  %2 = alloca i32, align 4
  %3 = alloca ptr, align 8
  %4 = alloca i32, align 4
  %5 = alloca i32, align 4
  store ptr %0, ptr %3, align 8, !tbaa !4
  call void @llvm.lifetime.start.p0(i64 4, ptr %4) #12
  store i32 0, ptr %4, align 4, !tbaa !9
  br label %6

6:                                                ; preds = %27, %1
  %7 = load i32, ptr %4, align 4, !tbaa !9
  %8 = load ptr, ptr %3, align 8, !tbaa !4
  %9 = getelementptr inbounds nuw %struct.index_state, ptr %8, i32 0, i32 2
  %10 = load i32, ptr %9, align 4, !tbaa !34
  %11 = icmp ult i32 %7, %10
  br i1 %11, label %12, label %30

12:                                               ; preds = %6
  %13 = load ptr, ptr %3, align 8, !tbaa !4
  %14 = getelementptr inbounds nuw %struct.index_state, ptr %13, i32 0, i32 0
  %15 = load ptr, ptr %14, align 8, !tbaa !13
  %16 = load i32, ptr %4, align 4, !tbaa !9
  %17 = sext i32 %16 to i64
  %18 = getelementptr inbounds ptr, ptr %15, i64 %17
  %19 = load ptr, ptr %18, align 8, !tbaa !29
  %20 = getelementptr inbounds nuw %struct.cache_entry, ptr %19, i32 0, i32 3
  %21 = load i32, ptr %20, align 8, !tbaa !9
  %22 = and i32 12288, %21
  %23 = lshr i32 %22, 12
  %24 = icmp ne i32 %23, 0
  br i1 %24, label %25, label %26

25:                                               ; preds = %12
  store i32 1, ptr %2, align 4
  store i32 1, ptr %5, align 4
  br label %31

26:                                               ; preds = %12
  br label %27

27:                                               ; preds = %26
  %28 = load i32, ptr %4, align 4, !tbaa !9
  %29 = add nsw i32 %28, 1
  store i32 %29, ptr %4, align 4, !tbaa !9
  br label %6, !llvm.loop !161

30:                                               ; preds = %6
  store i32 0, ptr %2, align 4
  store i32 1, ptr %5, align 4
  br label %31

31:                                               ; preds = %30, %25
  call void @llvm.lifetime.end.p0(i64 4, ptr %4) #12
  %32 = load i32, ptr %2, align 4
  ret i32 %32
}