; Function Attrs: nofree norecurse nosync nounwind memory(read, inaccessiblemem: none) uwtable
define dso_local range(i32 0, 2) i32 @unmerged_index(ptr noundef readonly captures(none) %0) local_unnamed_addr #18 {
  %2 = getelementptr inbounds nuw i8, ptr %0, i64 12
  %3 = load i32, ptr %2, align 4, !tbaa !34
  %.not9 = icmp eq i32 %3, 0
  br i1 %.not9, label %._crit_edge, label %.lr.ph

.lr.ph:                                           ; preds = %1
  %4 = load ptr, ptr %0, align 8, !tbaa !4
  %wide.trip.count = zext i32 %3 to i64
  br label %6

5:                                                ; preds = %6
  %indvars.iv.next = add nuw nsw i64 %indvars.iv, 1
  %exitcond.not = icmp eq i64 %indvars.iv.next, %wide.trip.count
  br i1 %exitcond.not, label %._crit_edge, label %6, !llvm.loop !143

6:                                                ; preds = %.lr.ph, %5
  %indvars.iv = phi i64 [ 0, %.lr.ph ], [ %indvars.iv.next, %5 ]
  %7 = getelementptr inbounds nuw ptr, ptr %4, i64 %indvars.iv
  %8 = load ptr, ptr %7, align 8, !tbaa !25
  %9 = getelementptr inbounds nuw i8, ptr %8, i64 56
  %10 = load i32, ptr %9, align 8, !tbaa !32
  %11 = and i32 %10, 12288
  %.not = icmp eq i32 %11, 0
  br i1 %.not, label %5, label %._crit_edge

._crit_edge:                                      ; preds = %6, %5, %1
  %.05 = phi i32 [ 0, %1 ], [ 0, %5 ], [ 1, %6 ]
  ret i32 %.05
}